; Function Attrs: nofree norecurse nosync nounwind memory(argmem: readwrite) uwtable
define hidden void @x25519_ge_p3_to_cached(ptr noundef writeonly captures(none) %0, ptr noundef readonly captures(none) %1) local_unnamed_addr #0 {
  %3 = getelementptr inbounds nuw i8, ptr %1, i64 40
  br label %4

4:                                                ; preds = %4, %2
  %indvars.iv.i = phi i64 [ 0, %2 ], [ %indvars.iv.next.i, %4 ]
  %5 = getelementptr inbounds nuw i32, ptr %3, i64 %indvars.iv.i
  %6 = load i32, ptr %5, align 4, !tbaa !18
  %7 = getelementptr inbounds nuw i32, ptr %1, i64 %indvars.iv.i
  %8 = load i32, ptr %7, align 4, !tbaa !18
  %9 = add nsw i32 %8, %6
  %10 = getelementptr inbounds nuw i32, ptr %0, i64 %indvars.iv.i
  store i32 %9, ptr %10, align 4, !tbaa !18
  %indvars.iv.next.i = add nuw nsw i64 %indvars.iv.i, 1
  %exitcond.not.i = icmp eq i64 %indvars.iv.next.i, 10
  br i1 %exitcond.not.i, label %fe_add.exit, label %4, !llvm.loop !21

fe_add.exit:                                      ; preds = %4
  %11 = getelementptr inbounds nuw i8, ptr %0, i64 40
  br label %12

12:                                               ; preds = %12, %fe_add.exit
  %indvars.iv.i10 = phi i64 [ 0, %fe_add.exit ], [ %indvars.iv.next.i11, %12 ]
  %13 = getelementptr inbounds nuw i32, ptr %3, i64 %indvars.iv.i10
  %14 = load i32, ptr %13, align 4, !tbaa !18
  %15 = getelementptr inbounds nuw i32, ptr %1, i64 %indvars.iv.i10
  %16 = load i32, ptr %15, align 4, !tbaa !18
  %17 = sub nsw i32 %14, %16
  %18 = getelementptr inbounds nuw i32, ptr %11, i64 %indvars.iv.i10
  store i32 %17, ptr %18, align 4, !tbaa !18
  %indvars.iv.next.i11 = add nuw nsw i64 %indvars.iv.i10, 1
  %exitcond.not.i12 = icmp eq i64 %indvars.iv.next.i11, 10
  br i1 %exitcond.not.i12, label %fe_sub.exit, label %12, !llvm.loop !20

fe_sub.exit:                                      ; preds = %12
  %19 = getelementptr inbounds nuw i8, ptr %0, i64 80
  %20 = getelementptr inbounds nuw i8, ptr %1, i64 80
  tail call void @llvm.memmove.p0.p0.i64(ptr noundef nonnull align 4 dereferenceable(40) %19, ptr noundef nonnull readonly align 4 dereferenceable(40) %20, i64 40, i1 false)
  %21 = getelementptr inbounds nuw i8, ptr %0, i64 120
  %22 = getelementptr inbounds nuw i8, ptr %1, i64 120
  tail call fastcc void @fe_mul(ptr noundef nonnull %21, ptr noundef nonnull %22, ptr noundef nonnull @d2)
  ret void
}